; Function Attrs: mustprogress uwtable
define hidden noundef zeroext i1 @_ZNK10params_ref8get_boolEPKcRKS_b(ptr nocapture noundef nonnull readonly align 8 dereferenceable(8) %this, ptr noundef %k, ptr nocapture noundef nonnull readonly align 8 dereferenceable(8) %fallback, i1 noundef zeroext %_default) local_unnamed_addr #3 align 2 {
entry:
  %0 = load ptr, ptr %this, align 8
  %tobool.not = icmp eq ptr %0, null
  br i1 %tobool.not, label %cond.false, label %cond.true

cond.true:                                        ; preds = %entry
  %call = tail call noundef zeroext i1 @_ZNK6params8get_boolEPKcRK10params_refb(ptr noundef nonnull align 8 dereferenceable(12) %0, ptr noundef %k, ptr noundef nonnull align 8 dereferenceable(8) %fallback, i1 noundef zeroext %_default)
  br label %cond.end

cond.false:                                       ; preds = %entry
  %1 = load ptr, ptr %fallback, align 8
  %tobool.not.i = icmp eq ptr %1, null
  br i1 %tobool.not.i, label %cond.end, label %cond.true.i

cond.true.i:                                      ; preds = %cond.false
  %call.i = tail call noundef zeroext i1 @_ZNK6params8get_boolEPKcb(ptr noundef nonnull align 8 dereferenceable(12) %1, ptr noundef %k, i1 noundef zeroext %_default)
  br label %cond.end

cond.end:                                         ; preds = %cond.true.i, %cond.false, %cond.true
  %cond = phi i1 [ %call, %cond.true ], [ %call.i, %cond.true.i ], [ %_default, %cond.false ]
  ret i1 %cond
}